target datalayout = "e-m:e-p270:32:32-p271:32:32-p272:64:64-i64:64-i128:128-f80:128-n8:16:32:64-S128"
target triple = "x86_64-pc-linux-gnu"

; Function Attrs: mustprogress uwtable
define hidden void @_ZN3nla5order17order_lemma_on_abERNS_9new_lemmaERKNS_5monicERK8rationaljjb(ptr noundef nonnull align 8 dereferenceable(184) %0, ptr noundef nonnull align 8 dereferenceable(16) %1, ptr noundef nonnull align 8 dereferenceable(34) %2, ptr noundef nonnull align 8 dereferenceable(32) %3, i32 noundef %4, i32 noundef %5, i1 noundef zeroext %6) #6 align 2 {
  %8 = alloca ptr, align 8
  %9 = alloca ptr, align 8
  %10 = alloca ptr, align 8
  %11 = alloca ptr, align 8
  %12 = alloca i32, align 4
  %13 = alloca i32, align 4
  %14 = alloca i8, align 1
  store ptr %0, ptr %8, align 8, !tbaa !16
  store ptr %1, ptr %9, align 8, !tbaa !269
  store ptr %2, ptr %10, align 8, !tbaa !63
  store ptr %3, ptr %11, align 8, !tbaa !95
  store i32 %4, ptr %12, align 4, !tbaa !8
  store i32 %5, ptr %13, align 4, !tbaa !8
  %15 = zext i1 %6 to i8
  store i8 %15, ptr %14, align 1, !tbaa !10
  %16 = load ptr, ptr %8, align 8
  %17 = load i8, ptr %14, align 1, !tbaa !10, !range !12, !noundef !13
  %18 = trunc i8 %17 to i1
  br i1 %18, label %19, label %25

19:                                               ; preds = %7
  %20 = load ptr, ptr %9, align 8, !tbaa !269
  %21 = load ptr, ptr %10, align 8, !tbaa !63
  %22 = load ptr, ptr %11, align 8, !tbaa !95
  %23 = load i32, ptr %12, align 4, !tbaa !8
  %24 = load i32, ptr %13, align 4, !tbaa !8
  call void @_ZN3nla5order20order_lemma_on_ab_gtERNS_9new_lemmaERKNS_5monicERK8rationaljj(ptr noundef nonnull align 8 dereferenceable(184) %16, ptr noundef nonnull align 8 dereferenceable(16) %20, ptr noundef nonnull align 8 dereferenceable(34) %21, ptr noundef nonnull align 8 dereferenceable(32) %22, i32 noundef %23, i32 noundef %24)
  br label %31

25:                                               ; preds = %7
  %26 = load ptr, ptr %9, align 8, !tbaa !269
  %27 = load ptr, ptr %10, align 8, !tbaa !63
  %28 = load ptr, ptr %11, align 8, !tbaa !95
  %29 = load i32, ptr %12, align 4, !tbaa !8
  %30 = load i32, ptr %13, align 4, !tbaa !8
  call void @_ZN3nla5order20order_lemma_on_ab_ltERNS_9new_lemmaERKNS_5monicERK8rationaljj(ptr noundef nonnull align 8 dereferenceable(184) %16, ptr noundef nonnull align 8 dereferenceable(16) %26, ptr noundef nonnull align 8 dereferenceable(34) %27, ptr noundef nonnull align 8 dereferenceable(32) %28, i32 noundef %29, i32 noundef %30)
  br label %31

31:                                               ; preds = %25, %19
  ret void
}