; Function Attrs: mustprogress uwtable
define hidden void @_ZN3nla5order17order_lemma_on_abERNS_9new_lemmaERKNS_5monicERK8rationaljjb(ptr noundef nonnull align 8 dereferenceable(184) %0, ptr noundef nonnull align 8 dereferenceable(16) %1, ptr noundef nonnull readonly align 8 captures(none) dereferenceable(34) %2, ptr noundef nonnull align 8 dereferenceable(32) %3, i32 noundef %4, i32 noundef %5, i1 noundef zeroext %6) local_unnamed_addr #4 align 2 {
  br i1 %6, label %8, label %9

8:                                                ; preds = %7
  tail call void @_ZN3nla5order20order_lemma_on_ab_gtERNS_9new_lemmaERKNS_5monicERK8rationaljj(ptr noundef nonnull align 8 dereferenceable(184) %0, ptr noundef nonnull align 8 dereferenceable(16) %1, ptr noundef nonnull align 8 dereferenceable(34) %2, ptr noundef nonnull align 8 dereferenceable(32) %3, i32 noundef %4, i32 noundef %5)
  br label %10

9:                                                ; preds = %7
  tail call void @_ZN3nla5order20order_lemma_on_ab_ltERNS_9new_lemmaERKNS_5monicERK8rationaljj(ptr noundef nonnull align 8 dereferenceable(184) %0, ptr noundef nonnull align 8 dereferenceable(16) %1, ptr noundef nonnull align 8 dereferenceable(34) %2, ptr noundef nonnull align 8 dereferenceable(32) %3, i32 noundef %4, i32 noundef %5)
  br label %10

10:                                               ; preds = %9, %8
  ret void
}